target datalayout = "e-m:e-p270:32:32-p271:32:32-p272:64:64-i64:64-i128:128-f80:128-n8:16:32:64-S128"
target triple = "x86_64-pc-linux-gnu"

%struct.RelationData = type { %struct.RelFileLocator, ptr, i32, i32, i8, i8, i8, i8, i8, i32, i32, i32, i32, ptr, ptr, i32, %struct.LockInfoData, ptr, ptr, ptr, ptr, ptr, i8, ptr, ptr, ptr, ptr, ptr, ptr, i32, ptr, i8, ptr, ptr, i32, i8, i32, ptr, i8, ptr, ptr, ptr, ptr, ptr, ptr, ptr, i32, ptr, ptr, ptr, ptr, ptr, ptr, ptr, ptr, ptr, ptr, ptr, ptr, ptr, ptr, ptr, ptr, ptr, ptr, ptr, i32, i8, ptr }
%struct.RelFileLocator = type { i32, i32, i32 }
%struct.LockInfoData = type { %struct.LockRelId }
%struct.LockRelId = type { i32, i32 }
%struct.FormData_pg_class = type { i32, %struct.nameData, i32, i32, i32, i32, i32, i32, i32, i32, float, i32, i32, i8, i8, i8, i8, i16, i16, i8, i8, i8, i8, i8, i8, i8, i8, i32, i32, i32 }
%struct.nameData = type { [64 x i8] }
%struct.FormData_pg_attribute = type { i32, %struct.nameData, i32, i16, i16, i32, i16, i8, i8, i8, i8, i8, i8, i8, i8, i8, i8, i8, i16, i32 }
%struct.TupleDescData = type { i32, i32, i32, i32, ptr, [0 x %struct.CompactAttribute] }
%struct.CompactAttribute = type { i32, i16, i8, i8, i8, i8, i8, i8, i8 }

; Function Attrs: inlinehint nounwind uwtable
define internal ptr @TupleDescAttr(ptr noundef %0, i32 noundef %1) #3 {
  %3 = alloca ptr, align 8
  %4 = alloca i32, align 4
  %5 = alloca ptr, align 8
  store ptr %0, ptr %3, align 8
  store i32 %1, ptr %4, align 4
  call void @llvm.lifetime.start.p0(i64 8, ptr %5) #8
  %6 = load ptr, ptr %3, align 8
  %7 = load ptr, ptr %3, align 8
  %8 = getelementptr inbounds nuw %struct.TupleDescData, ptr %7, i32 0, i32 0
  %9 = load i32, ptr %8, align 8
  %10 = sext i32 %9 to i64
  %11 = mul i64 %10, 16
  %12 = add i64 24, %11
  %13 = getelementptr inbounds nuw i8, ptr %6, i64 %12
  store ptr %13, ptr %5, align 8
  %14 = load ptr, ptr %5, align 8
  %15 = load i32, ptr %4, align 4
  %16 = sext i32 %15 to i64
  %17 = getelementptr inbounds %struct.FormData_pg_attribute, ptr %14, i64 %16
  call void @llvm.lifetime.end.p0(i64 8, ptr %5) #8
  ret ptr %17
}

; Function Attrs: nounwind uwtable
define dso_local ptr @BuildOnConflictExcludedTargetlist(ptr noundef %0, i32 noundef %1) #0 {
  %3 = alloca ptr, align 8
  %4 = alloca i32, align 4
  %5 = alloca ptr, align 8
  %6 = alloca i32, align 4
  %7 = alloca ptr, align 8
  %8 = alloca ptr, align 8
  %9 = alloca ptr, align 8
  %10 = alloca ptr, align 8
  store ptr %0, ptr %3, align 8
  store i32 %1, ptr %4, align 4
  call void @llvm.lifetime.start.p0(i64 8, ptr %5) #8
  store ptr null, ptr %5, align 8
  call void @llvm.lifetime.start.p0(i64 4, ptr %6) #8
  call void @llvm.lifetime.start.p0(i64 8, ptr %7) #8
  call void @llvm.lifetime.start.p0(i64 8, ptr %8) #8
  store i32 0, ptr %6, align 4
  br label %11

11:                                               ; preds = %62, %2
  %12 = load i32, ptr %6, align 4
  %13 = load ptr, ptr %3, align 8
  %14 = getelementptr inbounds nuw %struct.RelationData, ptr %13, i32 0, i32 13
  %15 = load ptr, ptr %14, align 8
  %16 = getelementptr inbounds nuw %struct.FormData_pg_class, ptr %15, i32 0, i32 17
  %17 = load i16, ptr %16, align 4
  %18 = sext i16 %17 to i32
  %19 = icmp slt i32 %12, %18
  br i1 %19, label %20, label %65

20:                                               ; preds = %11
  call void @llvm.lifetime.start.p0(i64 8, ptr %9) #8
  %21 = load ptr, ptr %3, align 8
  %22 = getelementptr inbounds nuw %struct.RelationData, ptr %21, i32 0, i32 14
  %23 = load ptr, ptr %22, align 8
  %24 = load i32, ptr %6, align 4
  %25 = call ptr @TupleDescAttr(ptr noundef %23, i32 noundef %24)
  store ptr %25, ptr %9, align 8
  call void @llvm.lifetime.start.p0(i64 8, ptr %10) #8
  %26 = load ptr, ptr %9, align 8
  %27 = getelementptr inbounds nuw %struct.FormData_pg_attribute, ptr %26, i32 0, i32 16
  %28 = load i8, ptr %27, align 1, !range !4, !noundef !5
  %29 = trunc i8 %28 to i1
  br i1 %29, label %30, label %32

30:                                               ; preds = %20
  %31 = call ptr @makeNullConst(i32 noundef 23, i32 noundef -1, i32 noundef 0)
  store ptr %31, ptr %7, align 8
  store ptr null, ptr %10, align 8
  br label %52

32:                                               ; preds = %20
  %33 = load i32, ptr %4, align 4
  %34 = load i32, ptr %6, align 4
  %35 = add i32 %34, 1
  %36 = trunc i32 %35 to i16
  %37 = load ptr, ptr %9, align 8
  %38 = getelementptr inbounds nuw %struct.FormData_pg_attribute, ptr %37, i32 0, i32 2
  %39 = load i32, ptr %38, align 4
  %40 = load ptr, ptr %9, align 8
  %41 = getelementptr inbounds nuw %struct.FormData_pg_attribute, ptr %40, i32 0, i32 5
  %42 = load i32, ptr %41, align 4
  %43 = load ptr, ptr %9, align 8
  %44 = getelementptr inbounds nuw %struct.FormData_pg_attribute, ptr %43, i32 0, i32 19
  %45 = load i32, ptr %44, align 4
  %46 = call ptr @makeVar(i32 noundef %33, i16 noundef signext %36, i32 noundef %39, i32 noundef %42, i32 noundef %45, i32 noundef 0)
  store ptr %46, ptr %7, align 8
  %47 = load ptr, ptr %9, align 8
  %48 = getelementptr inbounds nuw %struct.FormData_pg_attribute, ptr %47, i32 0, i32 1
  %49 = getelementptr inbounds nuw %struct.nameData, ptr %48, i32 0, i32 0
  %50 = getelementptr inbounds [64 x i8], ptr %49, i64 0, i64 0
  %51 = call ptr @pstrdup(ptr noundef %50)
  store ptr %51, ptr %10, align 8
  br label %52

52:                                               ; preds = %32, %30
  %53 = load ptr, ptr %7, align 8
  %54 = load i32, ptr %6, align 4
  %55 = add i32 %54, 1
  %56 = trunc i32 %55 to i16
  %57 = load ptr, ptr %10, align 8
  %58 = call ptr @makeTargetEntry(ptr noundef %53, i16 noundef signext %56, ptr noundef %57, i1 noundef zeroext false)
  store ptr %58, ptr %8, align 8
  %59 = load ptr, ptr %5, align 8
  %60 = load ptr, ptr %8, align 8
  %61 = call ptr @lappend(ptr noundef %59, ptr noundef %60)
  store ptr %61, ptr %5, align 8
  call void @llvm.lifetime.end.p0(i64 8, ptr %10) #8
  call void @llvm.lifetime.end.p0(i64 8, ptr %9) #8
  br label %62

62:                                               ; preds = %52
  %63 = load i32, ptr %6, align 4
  %64 = add i32 %63, 1
  store i32 %64, ptr %6, align 4
  br label %11, !llvm.loop !31

65:                                               ; preds = %11
  %66 = load i32, ptr %4, align 4
  %67 = load ptr, ptr %3, align 8
  %68 = getelementptr inbounds nuw %struct.RelationData, ptr %67, i32 0, i32 13
  %69 = load ptr, ptr %68, align 8
  %70 = getelementptr inbounds nuw %struct.FormData_pg_class, ptr %69, i32 0, i32 3
  %71 = load i32, ptr %70, align 4
  %72 = call ptr @makeVar(i32 noundef %66, i16 noundef signext 0, i32 noundef %71, i32 noundef -1, i32 noundef 0, i32 noundef 0)
  store ptr %72, ptr %7, align 8
  %73 = load ptr, ptr %7, align 8
  %74 = call ptr @makeTargetEntry(ptr noundef %73, i16 noundef signext 0, ptr noundef null, i1 noundef zeroext true)
  store ptr %74, ptr %8, align 8
  %75 = load ptr, ptr %5, align 8
  %76 = load ptr, ptr %8, align 8
  %77 = call ptr @lappend(ptr noundef %75, ptr noundef %76)
  store ptr %77, ptr %5, align 8
  %78 = load ptr, ptr %5, align 8
  call void @llvm.lifetime.end.p0(i64 8, ptr %8) #8
  call void @llvm.lifetime.end.p0(i64 8, ptr %7) #8
  call void @llvm.lifetime.end.p0(i64 4, ptr %6) #8
  call void @llvm.lifetime.end.p0(i64 8, ptr %5) #8
  ret ptr %78
}