; Function Attrs: nounwind uwtable
define dso_local ptr @BuildOnConflictExcludedTargetlist(ptr noundef readonly captures(none) %0, i32 noundef %1) local_unnamed_addr #0 {
  %3 = getelementptr inbounds nuw i8, ptr %0, i64 56
  %4 = load ptr, ptr %3, align 8
  %5 = getelementptr inbounds nuw i8, ptr %4, i64 116
  %6 = load i16, ptr %5, align 4
  %7 = icmp sgt i16 %6, 0
  br i1 %7, label %.lr.ph, label %._crit_edge

.lr.ph:                                           ; preds = %2
  %8 = getelementptr inbounds nuw i8, ptr %0, i64 64
  br label %9

9:                                                ; preds = %.lr.ph, %34
  %indvars.iv = phi i64 [ 0, %.lr.ph ], [ %indvars.iv.next, %34 ]
  %.02226 = phi ptr [ null, %.lr.ph ], [ %37, %34 ]
  %10 = load ptr, ptr %8, align 8
  %11 = load i32, ptr %10, align 8
  %12 = sext i32 %11 to i64
  %13 = shl nsw i64 %12, 4
  %14 = getelementptr i8, ptr %10, i64 %13
  %15 = getelementptr i8, ptr %14, i64 24
  %16 = getelementptr inbounds nuw %struct.FormData_pg_attribute, ptr %15, i64 %indvars.iv
  %17 = getelementptr inbounds nuw i8, ptr %16, i64 91
  %18 = load i8, ptr %17, align 1, !range !5, !noundef !4
  %19 = trunc nuw i8 %18 to i1
  br i1 %19, label %20, label %22

20:                                               ; preds = %9
  %21 = tail call ptr @makeNullConst(i32 noundef 23, i32 noundef -1, i32 noundef 0) #11
  br label %34

22:                                               ; preds = %9
  %23 = trunc i64 %indvars.iv to i16
  %24 = add i16 %23, 1
  %25 = getelementptr inbounds nuw i8, ptr %16, i64 68
  %26 = load i32, ptr %25, align 4
  %27 = getelementptr inbounds nuw i8, ptr %16, i64 76
  %28 = load i32, ptr %27, align 4
  %29 = getelementptr inbounds nuw i8, ptr %16, i64 96
  %30 = load i32, ptr %29, align 4
  %31 = tail call ptr @makeVar(i32 noundef %1, i16 noundef signext %24, i32 noundef %26, i32 noundef %28, i32 noundef %30, i32 noundef 0) #11
  %32 = getelementptr inbounds nuw i8, ptr %16, i64 4
  %33 = tail call ptr @pstrdup(ptr noundef nonnull %32) #11
  br label %34

34:                                               ; preds = %22, %20
  %.023 = phi ptr [ %21, %20 ], [ %31, %22 ]
  %.0 = phi ptr [ null, %20 ], [ %33, %22 ]
  %indvars.iv.next = add nuw nsw i64 %indvars.iv, 1
  %35 = trunc nuw nsw i64 %indvars.iv.next to i16
  %36 = tail call ptr @makeTargetEntry(ptr noundef %.023, i16 noundef signext %35, ptr noundef %.0, i1 noundef zeroext false) #11
  %37 = tail call ptr @lappend(ptr noundef %.02226, ptr noundef %36) #11
  %38 = load ptr, ptr %3, align 8
  %39 = getelementptr inbounds nuw i8, ptr %38, i64 116
  %40 = load i16, ptr %39, align 4
  %41 = sext i16 %40 to i64
  %42 = icmp slt i64 %indvars.iv.next, %41
  br i1 %42, label %9, label %._crit_edge, !llvm.loop !19

._crit_edge:                                      ; preds = %34, %2
  %.022.lcssa = phi ptr [ null, %2 ], [ %37, %34 ]
  %.lcssa = phi ptr [ %4, %2 ], [ %38, %34 ]
  %43 = getelementptr inbounds nuw i8, ptr %.lcssa, i64 72
  %44 = load i32, ptr %43, align 4
  %45 = tail call ptr @makeVar(i32 noundef %1, i16 noundef signext 0, i32 noundef %44, i32 noundef -1, i32 noundef 0, i32 noundef 0) #11
  %46 = tail call ptr @makeTargetEntry(ptr noundef %45, i16 noundef signext 0, ptr noundef null, i1 noundef zeroext true) #11
  %47 = tail call ptr @lappend(ptr noundef %.022.lcssa, ptr noundef %46) #11
  ret ptr %47
}